target datalayout = "e-m:e-p270:32:32-p271:32:32-p272:64:64-i64:64-i128:128-f80:128-n8:16:32:64-S128"
target triple = "x86_64-pc-linux-gnu"

%struct.UtvideoContext = type { ptr, %struct.UTVideoDSPContext, %struct.BswapDSPContext, %struct.LLVidDSPContext, i32, i32, i32, i32, i32, i32, i32, i32, i32, i32, i32, ptr, i32, ptr, [4 x [256 x ptr]], [4 x [256 x i64]], [4 x [256 x ptr]], [4 x [256 x i64]] }
%struct.UTVideoDSPContext = type { ptr, ptr }
%struct.BswapDSPContext = type { ptr, ptr }
%struct.LLVidDSPContext = type { ptr, ptr, ptr, ptr, ptr }

; Function Attrs: nounwind uwtable
define internal void @restore_gradient_planar(ptr noundef %0, ptr noundef %1, i64 noundef %2, i32 noundef %3, i32 noundef %4, i32 noundef %5, i32 noundef %6) #1 {
  %8 = alloca ptr, align 8
  %9 = alloca ptr, align 8
  %10 = alloca i64, align 8
  %11 = alloca i32, align 4
  %12 = alloca i32, align 4
  %13 = alloca i32, align 4
  %14 = alloca i32, align 4
  %15 = alloca i32, align 4
  %16 = alloca i32, align 4
  %17 = alloca i32, align 4
  %18 = alloca i32, align 4
  %19 = alloca i32, align 4
  %20 = alloca i32, align 4
  %21 = alloca ptr, align 8
  %22 = alloca i32, align 4
  %23 = alloca i32, align 4
  %24 = alloca i32, align 4
  %25 = alloca i32, align 4
  store ptr %0, ptr %8, align 8, !tbaa !29
  store ptr %1, ptr %9, align 8, !tbaa !62
  store i64 %2, ptr %10, align 8, !tbaa !66
  store i32 %3, ptr %11, align 4, !tbaa !44
  store i32 %4, ptr %12, align 4, !tbaa !44
  store i32 %5, ptr %13, align 4, !tbaa !44
  store i32 %6, ptr %14, align 4, !tbaa !44
  call void @llvm.lifetime.start.p0(i64 4, ptr %15) #11
  call void @llvm.lifetime.start.p0(i64 4, ptr %16) #11
  call void @llvm.lifetime.start.p0(i64 4, ptr %17) #11
  call void @llvm.lifetime.start.p0(i64 4, ptr %18) #11
  call void @llvm.lifetime.start.p0(i64 4, ptr %19) #11
  call void @llvm.lifetime.start.p0(i64 4, ptr %20) #11
  call void @llvm.lifetime.start.p0(i64 8, ptr %21) #11
  call void @llvm.lifetime.start.p0(i64 4, ptr %22) #11
  call void @llvm.lifetime.start.p0(i64 4, ptr %23) #11
  call void @llvm.lifetime.start.p0(i64 4, ptr %24) #11
  %26 = load i32, ptr %14, align 4, !tbaa !44
  %27 = xor i32 %26, -1
  store i32 %27, ptr %24, align 4, !tbaa !44
  call void @llvm.lifetime.start.p0(i64 4, ptr %25) #11
  %28 = load i32, ptr %11, align 4, !tbaa !44
  %29 = icmp sgt i32 %28, 32
  br i1 %29, label %30, label %31

30:                                               ; preds = %7
  br label %33

31:                                               ; preds = %7
  %32 = load i32, ptr %11, align 4, !tbaa !44
  br label %33

33:                                               ; preds = %31, %30
  %34 = phi i32 [ 32, %30 ], [ %32, %31 ]
  store i32 %34, ptr %25, align 4, !tbaa !44
  store i32 0, ptr %17, align 4, !tbaa !44
  br label %35

35:                                               ; preds = %181, %33
  %36 = load i32, ptr %17, align 4, !tbaa !44
  %37 = load i32, ptr %13, align 4, !tbaa !44
  %38 = icmp slt i32 %36, %37
  br i1 %38, label %39, label %184

39:                                               ; preds = %35
  %40 = load i32, ptr %17, align 4, !tbaa !44
  %41 = load i32, ptr %12, align 4, !tbaa !44
  %42 = mul nsw i32 %40, %41
  %43 = load i32, ptr %13, align 4, !tbaa !44
  %44 = sdiv i32 %42, %43
  %45 = load i32, ptr %24, align 4, !tbaa !44
  %46 = and i32 %44, %45
  store i32 %46, ptr %22, align 4, !tbaa !44
  %47 = load i32, ptr %17, align 4, !tbaa !44
  %48 = add nsw i32 %47, 1
  %49 = load i32, ptr %12, align 4, !tbaa !44
  %50 = mul nsw i32 %48, %49
  %51 = load i32, ptr %13, align 4, !tbaa !44
  %52 = sdiv i32 %50, %51
  %53 = load i32, ptr %24, align 4, !tbaa !44
  %54 = and i32 %52, %53
  %55 = load i32, ptr %22, align 4, !tbaa !44
  %56 = sub nsw i32 %54, %55
  store i32 %56, ptr %23, align 4, !tbaa !44
  %57 = load i32, ptr %23, align 4, !tbaa !44
  %58 = icmp ne i32 %57, 0
  br i1 %58, label %60, label %59

59:                                               ; preds = %39
  br label %181

60:                                               ; preds = %39
  %61 = load ptr, ptr %9, align 8, !tbaa !62
  %62 = load i32, ptr %22, align 4, !tbaa !44
  %63 = sext i32 %62 to i64
  %64 = load i64, ptr %10, align 8, !tbaa !66
  %65 = mul nsw i64 %63, %64
  %66 = getelementptr inbounds i8, ptr %61, i64 %65
  store ptr %66, ptr %21, align 8, !tbaa !62
  %67 = load ptr, ptr %21, align 8, !tbaa !62
  %68 = getelementptr inbounds i8, ptr %67, i64 0
  %69 = load i8, ptr %68, align 1, !tbaa !48
  %70 = zext i8 %69 to i32
  %71 = add nsw i32 %70, 128
  %72 = trunc i32 %71 to i8
  store i8 %72, ptr %68, align 1, !tbaa !48
  %73 = load ptr, ptr %8, align 8, !tbaa !29
  %74 = getelementptr inbounds nuw %struct.UtvideoContext, ptr %73, i32 0, i32 3
  %75 = getelementptr inbounds nuw %struct.LLVidDSPContext, ptr %74, i32 0, i32 2
  %76 = load ptr, ptr %75, align 8, !tbaa !113
  %77 = load ptr, ptr %21, align 8, !tbaa !62
  %78 = load ptr, ptr %21, align 8, !tbaa !62
  %79 = load i32, ptr %11, align 4, !tbaa !44
  %80 = sext i32 %79 to i64
  %81 = call i32 %76(ptr noundef %77, ptr noundef %78, i64 noundef %80, i32 noundef 0)
  %82 = load i64, ptr %10, align 8, !tbaa !66
  %83 = load ptr, ptr %21, align 8, !tbaa !62
  %84 = getelementptr inbounds i8, ptr %83, i64 %82
  store ptr %84, ptr %21, align 8, !tbaa !62
  %85 = load i32, ptr %23, align 4, !tbaa !44
  %86 = icmp sle i32 %85, 1
  br i1 %86, label %87, label %88

87:                                               ; preds = %60
  br label %181

88:                                               ; preds = %60
  store i32 1, ptr %16, align 4, !tbaa !44
  br label %89

89:                                               ; preds = %177, %88
  %90 = load i32, ptr %16, align 4, !tbaa !44
  %91 = load i32, ptr %23, align 4, !tbaa !44
  %92 = icmp slt i32 %90, %91
  br i1 %92, label %93, label %180

93:                                               ; preds = %89
  %94 = load ptr, ptr %21, align 8, !tbaa !62
  %95 = getelementptr inbounds i8, ptr %94, i64 0
  %96 = load i8, ptr %95, align 1, !tbaa !48
  %97 = zext i8 %96 to i32
  %98 = load ptr, ptr %21, align 8, !tbaa !62
  %99 = load i64, ptr %10, align 8, !tbaa !66
  %100 = sub nsw i64 0, %99
  %101 = getelementptr inbounds i8, ptr %98, i64 %100
  %102 = load i8, ptr %101, align 1, !tbaa !48
  %103 = zext i8 %102 to i32
  %104 = add nsw i32 %97, %103
  %105 = and i32 %104, 255
  %106 = trunc i32 %105 to i8
  %107 = load ptr, ptr %21, align 8, !tbaa !62
  %108 = getelementptr inbounds i8, ptr %107, i64 0
  store i8 %106, ptr %108, align 1, !tbaa !48
  store i32 1, ptr %15, align 4, !tbaa !44
  br label %109

109:                                              ; preds = %156, %93
  %110 = load i32, ptr %15, align 4, !tbaa !44
  %111 = load i32, ptr %25, align 4, !tbaa !44
  %112 = icmp slt i32 %110, %111
  br i1 %112, label %113, label %159

113:                                              ; preds = %109
  %114 = load ptr, ptr %21, align 8, !tbaa !62
  %115 = load i32, ptr %15, align 4, !tbaa !44
  %116 = sext i32 %115 to i64
  %117 = load i64, ptr %10, align 8, !tbaa !66
  %118 = sub nsw i64 %116, %117
  %119 = getelementptr inbounds i8, ptr %114, i64 %118
  %120 = load i8, ptr %119, align 1, !tbaa !48
  %121 = zext i8 %120 to i32
  store i32 %121, ptr %18, align 4, !tbaa !44
  %122 = load ptr, ptr %21, align 8, !tbaa !62
  %123 = load i32, ptr %15, align 4, !tbaa !44
  %124 = sext i32 %123 to i64
  %125 = load i64, ptr %10, align 8, !tbaa !66
  %126 = add nsw i64 %125, 1
  %127 = sub nsw i64 %124, %126
  %128 = getelementptr inbounds i8, ptr %122, i64 %127
  %129 = load i8, ptr %128, align 1, !tbaa !48
  %130 = zext i8 %129 to i32
  store i32 %130, ptr %19, align 4, !tbaa !44
  %131 = load ptr, ptr %21, align 8, !tbaa !62
  %132 = load i32, ptr %15, align 4, !tbaa !44
  %133 = sub nsw i32 %132, 1
  %134 = sext i32 %133 to i64
  %135 = getelementptr inbounds i8, ptr %131, i64 %134
  %136 = load i8, ptr %135, align 1, !tbaa !48
  %137 = zext i8 %136 to i32
  store i32 %137, ptr %20, align 4, !tbaa !44
  %138 = load i32, ptr %18, align 4, !tbaa !44
  %139 = load i32, ptr %19, align 4, !tbaa !44
  %140 = sub nsw i32 %138, %139
  %141 = load i32, ptr %20, align 4, !tbaa !44
  %142 = add nsw i32 %140, %141
  %143 = load ptr, ptr %21, align 8, !tbaa !62
  %144 = load i32, ptr %15, align 4, !tbaa !44
  %145 = sext i32 %144 to i64
  %146 = getelementptr inbounds i8, ptr %143, i64 %145
  %147 = load i8, ptr %146, align 1, !tbaa !48
  %148 = zext i8 %147 to i32
  %149 = add nsw i32 %142, %148
  %150 = and i32 %149, 255
  %151 = trunc i32 %150 to i8
  %152 = load ptr, ptr %21, align 8, !tbaa !62
  %153 = load i32, ptr %15, align 4, !tbaa !44
  %154 = sext i32 %153 to i64
  %155 = getelementptr inbounds i8, ptr %152, i64 %154
  store i8 %151, ptr %155, align 1, !tbaa !48
  br label %156

156:                                              ; preds = %113
  %157 = load i32, ptr %15, align 4, !tbaa !44
  %158 = add nsw i32 %157, 1
  store i32 %158, ptr %15, align 4, !tbaa !44
  br label %109, !llvm.loop !123

159:                                              ; preds = %109
  %160 = load i32, ptr %11, align 4, !tbaa !44
  %161 = icmp sgt i32 %160, 32
  br i1 %161, label %162, label %173

162:                                              ; preds = %159
  %163 = load ptr, ptr %8, align 8, !tbaa !29
  %164 = getelementptr inbounds nuw %struct.UtvideoContext, ptr %163, i32 0, i32 3
  %165 = getelementptr inbounds nuw %struct.LLVidDSPContext, ptr %164, i32 0, i32 4
  %166 = load ptr, ptr %165, align 8, !tbaa !124
  %167 = load ptr, ptr %21, align 8, !tbaa !62
  %168 = getelementptr inbounds i8, ptr %167, i64 32
  %169 = load i64, ptr %10, align 8, !tbaa !66
  %170 = load i32, ptr %11, align 4, !tbaa !44
  %171 = sub nsw i32 %170, 32
  %172 = sext i32 %171 to i64
  call void %166(ptr noundef %168, i64 noundef %169, i64 noundef %172)
  br label %173

173:                                              ; preds = %162, %159
  %174 = load i64, ptr %10, align 8, !tbaa !66
  %175 = load ptr, ptr %21, align 8, !tbaa !62
  %176 = getelementptr inbounds i8, ptr %175, i64 %174
  store ptr %176, ptr %21, align 8, !tbaa !62
  br label %177

177:                                              ; preds = %173
  %178 = load i32, ptr %16, align 4, !tbaa !44
  %179 = add nsw i32 %178, 1
  store i32 %179, ptr %16, align 4, !tbaa !44
  br label %89, !llvm.loop !125

180:                                              ; preds = %89
  br label %181

181:                                              ; preds = %180, %87, %59
  %182 = load i32, ptr %17, align 4, !tbaa !44
  %183 = add nsw i32 %182, 1
  store i32 %183, ptr %17, align 4, !tbaa !44
  br label %35, !llvm.loop !126

184:                                              ; preds = %35
  call void @llvm.lifetime.end.p0(i64 4, ptr %25) #11
  call void @llvm.lifetime.end.p0(i64 4, ptr %24) #11
  call void @llvm.lifetime.end.p0(i64 4, ptr %23) #11
  call void @llvm.lifetime.end.p0(i64 4, ptr %22) #11
  call void @llvm.lifetime.end.p0(i64 8, ptr %21) #11
  call void @llvm.lifetime.end.p0(i64 4, ptr %20) #11
  call void @llvm.lifetime.end.p0(i64 4, ptr %19) #11
  call void @llvm.lifetime.end.p0(i64 4, ptr %18) #11
  call void @llvm.lifetime.end.p0(i64 4, ptr %17) #11
  call void @llvm.lifetime.end.p0(i64 4, ptr %16) #11
  call void @llvm.lifetime.end.p0(i64 4, ptr %15) #11
  ret void
}