; Function Attrs: nounwind uwtable
define internal fastcc void @restore_gradient_planar(ptr noundef readonly captures(none) %0, ptr noundef %1, i64 noundef range(i64 -2147483648, 2147483648) %2, i32 noundef %3, i32 noundef %4, i32 noundef %5, i32 noundef range(i32 0, 2) %6) unnamed_addr #1 {
  %8 = xor i32 %6, -1
  %9 = icmp sgt i32 %3, 32
  %10 = tail call i32 @llvm.smin.i32(i32 %3, i32 32)
  %11 = icmp sgt i32 %5, 0
  br i1 %11, label %.lr.ph, label %._crit_edge

.lr.ph:                                           ; preds = %7
  %12 = getelementptr inbounds nuw i8, ptr %0, i64 56
  %13 = sext i32 %3 to i64
  %14 = icmp sgt i32 %3, 1
  %15 = getelementptr inbounds nuw i8, ptr %0, i64 72
  %16 = add nsw i32 %3, -32
  %17 = zext nneg i32 %16 to i64
  br i1 %14, label %.lr.ph.split.us, label %.lr.ph.split.split

.lr.ph.split.us:                                  ; preds = %.lr.ph
  %wide.trip.count93 = zext nneg i32 %10 to i64
  br i1 %9, label %.lr.ph.split.us.split.us, label %.lr.ph.split.us.split

.lr.ph.split.us.split.us:                         ; preds = %.lr.ph.split.us, %.loopexit.split.us.us.split.us.us
  %.05975.us.us = phi i32 [ %21, %.loopexit.split.us.us.split.us.us ], [ 0, %.lr.ph.split.us ]
  %18 = mul nsw i32 %.05975.us.us, %4
  %19 = sdiv i32 %18, %5
  %20 = and i32 %19, %8
  %21 = add nuw nsw i32 %.05975.us.us, 1
  %22 = mul nsw i32 %21, %4
  %23 = sdiv i32 %22, %5
  %24 = and i32 %23, %8
  %25 = sub i32 %24, %20
  %.not.us.us = icmp eq i32 %24, %20
  br i1 %.not.us.us, label %.loopexit.split.us.us.split.us.us, label %26

26:                                               ; preds = %.lr.ph.split.us.split.us
  %27 = sext i32 %20 to i64
  %28 = mul nsw i64 %2, %27
  %29 = getelementptr inbounds i8, ptr %1, i64 %28
  %30 = load i8, ptr %29, align 1, !tbaa !44
  %31 = xor i8 %30, -128
  store i8 %31, ptr %29, align 1, !tbaa !44
  %32 = load ptr, ptr %12, align 8, !tbaa !101
  %33 = tail call i32 %32(ptr noundef nonnull %29, ptr noundef nonnull %29, i64 noundef %13, i32 noundef 0) #7
  %34 = icmp slt i32 %25, 2
  br i1 %34, label %.loopexit.split.us.us.split.us.us, label %.lr.ph.us.us.us.us.preheader

.lr.ph.us.us.us.us.preheader:                     ; preds = %26
  %35 = add nsw i64 %27, 1
  br label %.lr.ph.us.us.us.us

.loopexit.split.us.us.split.us.us:                ; preds = %._crit_edge.us.us.us.us, %26, %.lr.ph.split.us.split.us
  %exitcond96.not = icmp eq i32 %21, %5
  br i1 %exitcond96.not, label %._crit_edge, label %.lr.ph.split.us.split.us, !llvm.loop !110

.lr.ph.us.us.us.us:                               ; preds = %.lr.ph.us.us.us.us.preheader, %._crit_edge.us.us.us.us
  %indvar = phi i64 [ 0, %.lr.ph.us.us.us.us.preheader ], [ %indvar.next, %._crit_edge.us.us.us.us ]
  %.05868.us.us.us.us = phi i32 [ 1, %.lr.ph.us.us.us.us.preheader ], [ %51, %._crit_edge.us.us.us.us ]
  %.pn67.us.us.us.us = phi ptr [ %29, %.lr.ph.us.us.us.us.preheader ], [ %.06069.us.us.us.us, %._crit_edge.us.us.us.us ]
  %36 = add i64 %35, %indvar
  %37 = mul i64 %2, %36
  %scevgep = getelementptr i8, ptr %1, i64 %37
  %.06069.us.us.us.us = getelementptr inbounds i8, ptr %.pn67.us.us.us.us, i64 %2
  %38 = load i8, ptr %.06069.us.us.us.us, align 1, !tbaa !44
  %39 = load i8, ptr %.pn67.us.us.us.us, align 1, !tbaa !44
  %.narrow.us.us.us.us = add i8 %39, %38
  store i8 %.narrow.us.us.us.us, ptr %.06069.us.us.us.us, align 1, !tbaa !44
  %40 = getelementptr i8, ptr %.pn67.us.us.us.us, i64 -1
  %load_initial = load i8, ptr %scevgep, align 1
  br label %41

41:                                               ; preds = %41, %.lr.ph.us.us.us.us
  %store_forwarded = phi i8 [ %load_initial, %.lr.ph.us.us.us.us ], [ %.narrow64.us.us.us.us, %41 ]
  %indvars.iv90 = phi i64 [ 1, %.lr.ph.us.us.us.us ], [ %indvars.iv.next91, %41 ]
  %42 = getelementptr inbounds nuw i8, ptr %.pn67.us.us.us.us, i64 %indvars.iv90
  %43 = load i8, ptr %42, align 1, !tbaa !44
  %44 = getelementptr i8, ptr %40, i64 %indvars.iv90
  %45 = load i8, ptr %44, align 1, !tbaa !44
  %46 = getelementptr i8, ptr %.06069.us.us.us.us, i64 %indvars.iv90
  %47 = sub i8 %43, %45
  %.tr.us.us.us.us = add i8 %47, %store_forwarded
  %48 = load i8, ptr %46, align 1, !tbaa !44
  %.narrow64.us.us.us.us = add i8 %.tr.us.us.us.us, %48
  store i8 %.narrow64.us.us.us.us, ptr %46, align 1, !tbaa !44
  %indvars.iv.next91 = add nuw nsw i64 %indvars.iv90, 1
  %exitcond94.not = icmp eq i64 %indvars.iv.next91, %wide.trip.count93
  br i1 %exitcond94.not, label %._crit_edge.us.us.us.us, label %41, !llvm.loop !111

._crit_edge.us.us.us.us:                          ; preds = %41
  %49 = load ptr, ptr %15, align 8, !tbaa !112
  %50 = getelementptr inbounds nuw i8, ptr %.06069.us.us.us.us, i64 32
  tail call void %49(ptr noundef nonnull %50, i64 noundef %2, i64 noundef %17) #7
  %51 = add nuw nsw i32 %.05868.us.us.us.us, 1
  %exitcond95.not = icmp eq i32 %51, %25
  %indvar.next = add i64 %indvar, 1
  br i1 %exitcond95.not, label %.loopexit.split.us.us.split.us.us, label %.lr.ph.us.us.us.us, !llvm.loop !113

.lr.ph.split.us.split:                            ; preds = %.lr.ph.split.us, %.loopexit.split.us.us.split
  %.05975.us = phi i32 [ %55, %.loopexit.split.us.us.split ], [ 0, %.lr.ph.split.us ]
  %52 = mul nsw i32 %.05975.us, %4
  %53 = sdiv i32 %52, %5
  %54 = and i32 %53, %8
  %55 = add nuw nsw i32 %.05975.us, 1
  %56 = mul nsw i32 %55, %4
  %57 = sdiv i32 %56, %5
  %58 = and i32 %57, %8
  %59 = sub i32 %58, %54
  %.not.us = icmp eq i32 %58, %54
  br i1 %.not.us, label %.loopexit.split.us.us.split, label %60

60:                                               ; preds = %.lr.ph.split.us.split
  %61 = sext i32 %54 to i64
  %62 = mul nsw i64 %2, %61
  %63 = getelementptr inbounds i8, ptr %1, i64 %62
  %64 = load i8, ptr %63, align 1, !tbaa !44
  %65 = xor i8 %64, -128
  store i8 %65, ptr %63, align 1, !tbaa !44
  %66 = load ptr, ptr %12, align 8, !tbaa !101
  %67 = tail call i32 %66(ptr noundef nonnull %63, ptr noundef nonnull %63, i64 noundef %13, i32 noundef 0) #7
  %68 = icmp slt i32 %59, 2
  br i1 %68, label %.loopexit.split.us.us.split, label %.preheader.us

.loopexit.split.us.us.split:                      ; preds = %._crit_edge.us.us, %60, %.lr.ph.split.us.split
  %exitcond89.not = icmp eq i32 %55, %5
  br i1 %exitcond89.not, label %._crit_edge, label %.lr.ph.split.us.split, !llvm.loop !110

.preheader.us:                                    ; preds = %60
  %.pre97 = load i8, ptr %63, align 1, !tbaa !44
  %69 = add nsw i64 %61, 1
  br label %.lr.ph.us.us

.lr.ph.us.us:                                     ; preds = %._crit_edge.us.us, %.preheader.us
  %indvar102 = phi i64 [ %indvar.next103, %._crit_edge.us.us ], [ 0, %.preheader.us ]
  %70 = phi i8 [ %.narrow.us.us, %._crit_edge.us.us ], [ %.pre97, %.preheader.us ]
  %.05868.us.us = phi i32 [ %83, %._crit_edge.us.us ], [ 1, %.preheader.us ]
  %.pn67.us.us = phi ptr [ %.06069.us.us, %._crit_edge.us.us ], [ %63, %.preheader.us ]
  %71 = add i64 %69, %indvar102
  %72 = mul i64 %2, %71
  %scevgep104 = getelementptr i8, ptr %1, i64 %72
  %.06069.us.us = getelementptr inbounds i8, ptr %.pn67.us.us, i64 %2
  %73 = load i8, ptr %.06069.us.us, align 1, !tbaa !44
  %.narrow.us.us = add i8 %70, %73
  store i8 %.narrow.us.us, ptr %.06069.us.us, align 1, !tbaa !44
  %74 = getelementptr i8, ptr %.pn67.us.us, i64 -1
  %load_initial105 = load i8, ptr %scevgep104, align 1
  br label %75

75:                                               ; preds = %75, %.lr.ph.us.us
  %store_forwarded106 = phi i8 [ %load_initial105, %.lr.ph.us.us ], [ %.narrow64.us.us, %75 ]
  %indvars.iv = phi i64 [ 1, %.lr.ph.us.us ], [ %indvars.iv.next, %75 ]
  %76 = getelementptr inbounds nuw i8, ptr %.pn67.us.us, i64 %indvars.iv
  %77 = load i8, ptr %76, align 1, !tbaa !44
  %78 = getelementptr i8, ptr %74, i64 %indvars.iv
  %79 = load i8, ptr %78, align 1, !tbaa !44
  %80 = getelementptr i8, ptr %.06069.us.us, i64 %indvars.iv
  %81 = sub i8 %77, %79
  %.tr.us.us = add i8 %81, %store_forwarded106
  %82 = load i8, ptr %80, align 1, !tbaa !44
  %.narrow64.us.us = add i8 %.tr.us.us, %82
  store i8 %.narrow64.us.us, ptr %80, align 1, !tbaa !44
  %indvars.iv.next = add nuw nsw i64 %indvars.iv, 1
  %exitcond87.not = icmp eq i64 %indvars.iv.next, %wide.trip.count93
  br i1 %exitcond87.not, label %._crit_edge.us.us, label %75, !llvm.loop !111

._crit_edge.us.us:                                ; preds = %75
  %83 = add nuw nsw i32 %.05868.us.us, 1
  %exitcond88.not = icmp eq i32 %83, %59
  %indvar.next103 = add i64 %indvar102, 1
  br i1 %exitcond88.not, label %.loopexit.split.us.us.split, label %.lr.ph.us.us, !llvm.loop !113

.lr.ph.split.split:                               ; preds = %.lr.ph, %.loopexit.split.split
  %.05975 = phi i32 [ %87, %.loopexit.split.split ], [ 0, %.lr.ph ]
  %84 = mul nsw i32 %.05975, %4
  %85 = sdiv i32 %84, %5
  %86 = and i32 %85, %8
  %87 = add nuw nsw i32 %.05975, 1
  %88 = mul nsw i32 %87, %4
  %89 = sdiv i32 %88, %5
  %90 = and i32 %89, %8
  %91 = sub i32 %90, %86
  %.not = icmp eq i32 %90, %86
  br i1 %.not, label %.loopexit.split.split, label %92

92:                                               ; preds = %.lr.ph.split.split
  %93 = sext i32 %86 to i64
  %94 = mul nsw i64 %2, %93
  %95 = getelementptr inbounds i8, ptr %1, i64 %94
  %96 = load i8, ptr %95, align 1, !tbaa !44
  %97 = xor i8 %96, -128
  store i8 %97, ptr %95, align 1, !tbaa !44
  %98 = load ptr, ptr %12, align 8, !tbaa !101
  %99 = tail call i32 %98(ptr noundef nonnull %95, ptr noundef nonnull %95, i64 noundef %13, i32 noundef 0) #7
  %100 = icmp slt i32 %91, 2
  br i1 %100, label %.loopexit.split.split, label %.preheader

.preheader:                                       ; preds = %92
  %.pre = load i8, ptr %95, align 1, !tbaa !44
  br label %101

101:                                              ; preds = %.preheader, %101
  %102 = phi i8 [ %.pre, %.preheader ], [ %.narrow, %101 ]
  %.05868 = phi i32 [ 1, %.preheader ], [ %104, %101 ]
  %.pn67 = phi ptr [ %95, %.preheader ], [ %.06069, %101 ]
  %.06069 = getelementptr inbounds i8, ptr %.pn67, i64 %2
  %103 = load i8, ptr %.06069, align 1, !tbaa !44
  %.narrow = add i8 %102, %103
  store i8 %.narrow, ptr %.06069, align 1, !tbaa !44
  %104 = add nuw nsw i32 %.05868, 1
  %exitcond.not = icmp eq i32 %104, %91
  br i1 %exitcond.not, label %.loopexit.split.split, label %101, !llvm.loop !113

.loopexit.split.split:                            ; preds = %101, %92, %.lr.ph.split.split
  %exitcond83.not = icmp eq i32 %87, %5
  br i1 %exitcond83.not, label %._crit_edge, label %.lr.ph.split.split, !llvm.loop !110

._crit_edge:                                      ; preds = %.loopexit.split.split, %.loopexit.split.us.us.split, %.loopexit.split.us.us.split.us.us, %7
  ret void
}